target datalayout = "e-m:e-p270:32:32-p271:32:32-p272:64:64-i64:64-i128:128-f80:128-n8:16:32:64-S128"
target triple = "x86_64-pc-linux-gnu"

; Function Attrs: nounwind uwtable
define void @dt_mipmap_cache_remove(ptr noundef %0, i32 noundef %1) #0 {
  %3 = alloca ptr, align 8
  %4 = alloca i32, align 4
  %5 = alloca i32, align 4
  store ptr %0, ptr %3, align 8, !tbaa !50
  store i32 %1, ptr %4, align 4, !tbaa !43
  call void @llvm.lifetime.start.p0(i64 4, ptr %5) #12
  store i32 0, ptr %5, align 4, !tbaa !43
  br label %6

6:                                                ; preds = %14, %2
  %7 = load i32, ptr %5, align 4, !tbaa !43
  %8 = icmp ult i32 %7, 9
  br i1 %8, label %10, label %9

9:                                                ; preds = %6
  call void @llvm.lifetime.end.p0(i64 4, ptr %5) #12
  br label %17

10:                                               ; preds = %6
  %11 = load ptr, ptr %3, align 8, !tbaa !50
  %12 = load i32, ptr %4, align 4, !tbaa !43
  %13 = load i32, ptr %5, align 4, !tbaa !43
  call void @dt_mipmap_cache_remove_at_size(ptr noundef %11, i32 noundef %12, i32 noundef %13)
  br label %14

14:                                               ; preds = %10
  %15 = load i32, ptr %5, align 4, !tbaa !43
  %16 = add i32 %15, 1
  store i32 %16, ptr %5, align 4, !tbaa !43
  br label %6

17:                                               ; preds = %9
  ret void
}