; Function Attrs: nounwind uwtable
define void @dt_mipmap_cache_remove(ptr noundef %0, i32 noundef %1) local_unnamed_addr #3 {
  br label %4

3:                                                ; preds = %4
  ret void

4:                                                ; preds = %2, %4
  %.04 = phi i32 [ 0, %2 ], [ %5, %4 ]
  tail call void @dt_mipmap_cache_remove_at_size(ptr noundef %0, i32 noundef %1, i32 noundef %.04)
  %5 = add nuw nsw i32 %.04, 1
  %exitcond.not = icmp eq i32 %5, 9
  br i1 %exitcond.not, label %3, label %4
}